; Function Attrs: nounwind uwtable
define noundef ptr @l___private_Init_Data_List_ToArray_0__List_anyM_match__1_splitter___rarg___boxed(ptr noundef %0, ptr noundef %1, ptr noundef %2) #0 {
  %4 = ptrtoint ptr %0 to i64
  %5 = and i64 %4, 1
  %.not = icmp eq i64 %5, 0
  br i1 %.not, label %6, label %lean_dec.exit8

6:                                                ; preds = %3
  %7 = load i32, ptr %0, align 4, !tbaa !5
  %8 = icmp sgt i32 %7, 1
  br i1 %8, label %9, label %11, !prof !10

9:                                                ; preds = %6
  %10 = add nsw i32 %7, -1
  store i32 %10, ptr %0, align 4, !tbaa !5
  br label %lean_dec.exit8

11:                                               ; preds = %6
  %.not.i = icmp eq i32 %7, 0
  br i1 %.not.i, label %lean_dec.exit8, label %12

12:                                               ; preds = %11
  tail call void @lean_dec_ref_cold(ptr noundef nonnull %0) #4
  br label %lean_dec.exit8

lean_dec.exit8:                                   ; preds = %12, %11, %9, %3
  %13 = and i64 %4, 510
  %14 = icmp eq i64 %13, 0
  br i1 %14, label %15, label %24

15:                                               ; preds = %lean_dec.exit8
  %16 = ptrtoint ptr %2 to i64
  %17 = and i64 %16, 1
  %.not9.i = icmp eq i64 %17, 0
  br i1 %.not9.i, label %18, label %l___private_Init_Data_List_ToArray_0__List_anyM_match__1_splitter___rarg.exit

18:                                               ; preds = %15
  %.val.i.i = load i32, ptr %2, align 4, !tbaa !5
  %19 = icmp sgt i32 %.val.i.i, 0
  br i1 %19, label %20, label %22, !prof !10

20:                                               ; preds = %18
  %21 = add nuw i32 %.val.i.i, 1
  store i32 %21, ptr %2, align 4, !tbaa !5
  br label %l___private_Init_Data_List_ToArray_0__List_anyM_match__1_splitter___rarg.exit

22:                                               ; preds = %18
  %.not.i.i = icmp eq i32 %.val.i.i, 0
  br i1 %.not.i.i, label %l___private_Init_Data_List_ToArray_0__List_anyM_match__1_splitter___rarg.exit, label %23

23:                                               ; preds = %22
  tail call void @lean_inc_ref_cold(ptr noundef nonnull %2) #4
  br label %l___private_Init_Data_List_ToArray_0__List_anyM_match__1_splitter___rarg.exit

24:                                               ; preds = %lean_dec.exit8
  %25 = ptrtoint ptr %1 to i64
  %26 = and i64 %25, 1
  %.not.i13 = icmp eq i64 %26, 0
  br i1 %.not.i13, label %27, label %l___private_Init_Data_List_ToArray_0__List_anyM_match__1_splitter___rarg.exit

27:                                               ; preds = %24
  %.val.i6.i = load i32, ptr %1, align 4, !tbaa !5
  %28 = icmp sgt i32 %.val.i6.i, 0
  br i1 %28, label %29, label %31, !prof !10

29:                                               ; preds = %27
  %30 = add nuw i32 %.val.i6.i, 1
  store i32 %30, ptr %1, align 4, !tbaa !5
  br label %l___private_Init_Data_List_ToArray_0__List_anyM_match__1_splitter___rarg.exit

31:                                               ; preds = %27
  %.not.i7.i = icmp eq i32 %.val.i6.i, 0
  br i1 %.not.i7.i, label %l___private_Init_Data_List_ToArray_0__List_anyM_match__1_splitter___rarg.exit, label %32

32:                                               ; preds = %31
  tail call void @lean_inc_ref_cold(ptr noundef nonnull %1) #4
  br label %l___private_Init_Data_List_ToArray_0__List_anyM_match__1_splitter___rarg.exit

l___private_Init_Data_List_ToArray_0__List_anyM_match__1_splitter___rarg.exit: ; preds = %15, %20, %22, %23, %24, %29, %31, %32
  %.0.i = phi ptr [ %2, %23 ], [ %2, %22 ], [ %2, %20 ], [ %2, %15 ], [ %1, %32 ], [ %1, %31 ], [ %1, %29 ], [ %1, %24 ]
  %33 = ptrtoint ptr %2 to i64
  %34 = and i64 %33, 1
  %.not14 = icmp eq i64 %34, 0
  br i1 %.not14, label %35, label %lean_dec.exit7

35:                                               ; preds = %l___private_Init_Data_List_ToArray_0__List_anyM_match__1_splitter___rarg.exit
  %36 = load i32, ptr %2, align 4, !tbaa !5
  %37 = icmp sgt i32 %36, 1
  br i1 %37, label %38, label %40, !prof !10

38:                                               ; preds = %35
  %39 = add nsw i32 %36, -1
  store i32 %39, ptr %2, align 4, !tbaa !5
  br label %lean_dec.exit7

40:                                               ; preds = %35
  %.not.i9 = icmp eq i32 %36, 0
  br i1 %.not.i9, label %lean_dec.exit7, label %41

41:                                               ; preds = %40
  tail call void @lean_dec_ref_cold(ptr noundef nonnull %2) #4
  br label %lean_dec.exit7

lean_dec.exit7:                                   ; preds = %41, %40, %38, %l___private_Init_Data_List_ToArray_0__List_anyM_match__1_splitter___rarg.exit
  %42 = ptrtoint ptr %1 to i64
  %43 = and i64 %42, 1
  %.not15 = icmp eq i64 %43, 0
  br i1 %.not15, label %44, label %lean_dec.exit

44:                                               ; preds = %lean_dec.exit7
  %45 = load i32, ptr %1, align 4, !tbaa !5
  %46 = icmp sgt i32 %45, 1
  br i1 %46, label %47, label %49, !prof !10

47:                                               ; preds = %44
  %48 = add nsw i32 %45, -1
  store i32 %48, ptr %1, align 4, !tbaa !5
  br label %lean_dec.exit

49:                                               ; preds = %44
  %.not.i11 = icmp eq i32 %45, 0
  br i1 %.not.i11, label %lean_dec.exit, label %50

50:                                               ; preds = %49
  tail call void @lean_dec_ref_cold(ptr noundef nonnull %1) #4
  br label %lean_dec.exit

lean_dec.exit:                                    ; preds = %50, %49, %47, %lean_dec.exit7
  ret ptr %.0.i
}